---
triple:          'arm64-apple-darwin'
binary-path:     './VM'
relocations:
  - { offsetInCU: 0x10FF, offset: 0x10FF, size: 0x8, addend: 0x0, symName: __ZNSt3__17advanceB7v160006IPKhmmvEEvRT_T0_, symObjAddr: 0x670, symBinAddr: 0x100002214, symSize: 0x50 }
  - { offsetInCU: 0x41E2, offset: 0x41E2, size: 0x8, addend: 0x0, symName: __ZNSt3__119__debug_db_insert_cB7v160006INS_6vectorIhNS_9allocatorIhEEEEEEvPT_, symObjAddr: 0x298, symBinAddr: 0x100001E3C, symSize: 0x10 }
  - { offsetInCU: 0x4213, offset: 0x4213, size: 0x8, addend: 0x0, symName: __ZNSt3__18distanceB7v160006IPKhEENS_15iterator_traitsIT_E15difference_typeES4_S4_, symObjAddr: 0x5EC, symBinAddr: 0x100002190, symSize: 0x2C }
  - { offsetInCU: 0x4256, offset: 0x4256, size: 0x8, addend: 0x0, symName: __ZNSt3__14copyB7v160006IPKhPhEET0_T_S5_S4_, symObjAddr: 0x6C0, symBinAddr: 0x100002264, symSize: 0x40 }
  - { offsetInCU: 0x42B0, offset: 0x42B0, size: 0x8, addend: 0x0, symName: __ZNSt3__125__debug_db_invalidate_allB7v160006INS_6vectorIhNS_9allocatorIhEEEEEEvPT_, symObjAddr: 0x9D8, symBinAddr: 0x10000257C, symSize: 0x10 }
  - { offsetInCU: 0x42E1, offset: 0x42E1, size: 0x8, addend: 0x0, symName: __ZNSt3__110__distanceB7v160006IPKhEENS_15iterator_traitsIT_E15difference_typeES4_S4_NS_26random_access_iterator_tagE, symObjAddr: 0x9E8, symBinAddr: 0x10000258C, symSize: 0x20 }
  - { offsetInCU: 0x432E, offset: 0x432E, size: 0x8, addend: 0x0, symName: __ZNSt3__121__convert_to_integralB7v160006Em, symObjAddr: 0xA68, symBinAddr: 0x10000260C, symSize: 0x14 }
  - { offsetInCU: 0x435A, offset: 0x435A, size: 0x8, addend: 0x0, symName: __ZNSt3__19__advanceB7v160006IPKhEEvRT_NS_15iterator_traitsIS3_E15difference_typeENS_26random_access_iterator_tagE, symObjAddr: 0xA7C, symBinAddr: 0x100002620, symSize: 0x28 }
  - { offsetInCU: 0x43A3, offset: 0x43A3, size: 0x8, addend: 0x0, symName: __ZNSt3__16__copyB7v160006INS_17_ClassicAlgPolicyEPKhS3_PhEENS_4pairIT0_T2_EES6_T1_S7_, symObjAddr: 0xAA4, symBinAddr: 0x100002648, symSize: 0x44 }
  - { offsetInCU: 0x440F, offset: 0x440F, size: 0x8, addend: 0x0, symName: __ZNSt3__123__dispatch_copy_or_moveB7v160006INS_17_ClassicAlgPolicyENS_11__copy_loopIS1_EENS_14__copy_trivialEPKhS6_PhEENS_4pairIT2_T4_EES9_T3_SA_, symObjAddr: 0xAE8, symBinAddr: 0x10000268C, symSize: 0x44 }
  - { offsetInCU: 0x448D, offset: 0x448D, size: 0x8, addend: 0x0, symName: __ZNSt3__121__unwrap_and_dispatchB7v160006INS_10__overloadINS_11__copy_loopINS_17_ClassicAlgPolicyEEENS_14__copy_trivialEEEPKhS8_PhLi0EEENS_4pairIT0_T2_EESB_T1_SC_, symObjAddr: 0xB2C, symBinAddr: 0x1000026D0, symSize: 0xB4 }
  - { offsetInCU: 0x451B, offset: 0x451B, size: 0x8, addend: 0x0, symName: __ZNSt3__114__unwrap_rangeB7v160006IPKhS2_EENS_4pairIT0_S4_EET_S6_, symObjAddr: 0xBE0, symBinAddr: 0x100002784, symSize: 0x60 }
  - { offsetInCU: 0x46B0, offset: 0x46B0, size: 0x8, addend: 0x0, symName: __ZNSt3__113__unwrap_iterB7v160006IPhNS_18__unwrap_iter_implIS1_Lb1EEELi0EEEDTclsrT0_8__unwrapclsr3stdE7declvalIT_EEEES5_, symObjAddr: 0xC88, symBinAddr: 0x10000282C, symSize: 0x24 }
  - { offsetInCU: 0x46F4, offset: 0x46F4, size: 0x8, addend: 0x0, symName: __ZNSt3__19make_pairB7v160006IPKhPhEENS_4pairINS_18__unwrap_ref_decayIT_E4typeENS5_IT0_E4typeEEEOS6_OS9_, symObjAddr: 0xCAC, symBinAddr: 0x100002850, symSize: 0x38 }
  - { offsetInCU: 0x4743, offset: 0x4743, size: 0x8, addend: 0x0, symName: __ZNSt3__114__rewrap_rangeB7v160006IPKhS2_EET_S3_T0_, symObjAddr: 0xCE4, symBinAddr: 0x100002888, symSize: 0x2C }
  - { offsetInCU: 0x478F, offset: 0x478F, size: 0x8, addend: 0x0, symName: __ZNSt3__113__rewrap_iterB7v160006IPhS1_NS_18__unwrap_iter_implIS1_Lb1EEEEET_S4_T0_, symObjAddr: 0xD10, symBinAddr: 0x1000028B4, symSize: 0x3C }
  - { offsetInCU: 0x47E4, offset: 0x47E4, size: 0x8, addend: 0x0, symName: __ZNSt3__19make_pairB7v160006IPKhS2_EENS_4pairINS_18__unwrap_ref_decayIT_E4typeENS4_IT0_E4typeEEEOS5_OS8_, symObjAddr: 0xD4C, symBinAddr: 0x1000028F0, symSize: 0x38 }
  - { offsetInCU: 0x4833, offset: 0x4833, size: 0x8, addend: 0x0, symName: __ZNSt3__113__unwrap_iterB7v160006IPKhNS_18__unwrap_iter_implIS2_Lb1EEELi0EEEDTclsrT0_8__unwrapclsr3stdE7declvalIT_EEEES6_, symObjAddr: 0xD84, symBinAddr: 0x100002928, symSize: 0x24 }
  - { offsetInCU: 0x499E, offset: 0x499E, size: 0x8, addend: 0x0, symName: __ZNSt3__112__to_addressB7v160006IKhEEPT_S3_, symObjAddr: 0xE3C, symBinAddr: 0x1000029E0, symSize: 0x14 }
  - { offsetInCU: 0x49D3, offset: 0x49D3, size: 0x8, addend: 0x0, symName: __ZNSt3__119__copy_trivial_implB7v160006IKhhEENS_4pairIPT_PT0_EES4_S4_S6_, symObjAddr: 0xE50, symBinAddr: 0x1000029F4, symSize: 0x7C }
  - { offsetInCU: 0x4A3B, offset: 0x4A3B, size: 0x8, addend: 0x0, symName: __ZNSt3__19make_pairB7v160006IRPKhPhEENS_4pairINS_18__unwrap_ref_decayIT_E4typeENS6_IT0_E4typeEEEOS7_OSA_, symObjAddr: 0xECC, symBinAddr: 0x100002A70, symSize: 0x38 }
  - { offsetInCU: 0x4ADD, offset: 0x4ADD, size: 0x8, addend: 0x0, symName: __ZNSt3__112__to_addressB7v160006IhEEPT_S2_, symObjAddr: 0xF98, symBinAddr: 0x100002B3C, symSize: 0x14 }
  - { offsetInCU: 0x4B12, offset: 0x4B12, size: 0x8, addend: 0x0, symName: __ZNSt3__113__rewrap_iterB7v160006IPKhS2_NS_18__unwrap_iter_implIS2_Lb1EEEEET_S5_T0_, symObjAddr: 0x101C, symBinAddr: 0x100002BC0, symSize: 0x3C }
  - { offsetInCU: 0x4B67, offset: 0x4B67, size: 0x8, addend: 0x0, symName: __ZNSt3__130__uninitialized_allocator_copyB7v160006INS_9allocatorIhEEhhLPv0EEEPT0_RT_PKS4_S9_S5_, symObjAddr: 0x1124, symBinAddr: 0x100002CC8, symSize: 0x38 }
  - { offsetInCU: 0x4BDF, offset: 0x4BDF, size: 0x8, addend: 0x0, symName: __ZNSt3__119__libcpp_deallocateB7v160006EPvmm, symObjAddr: 0x1540, symBinAddr: 0x1000030E4, symSize: 0x60 }
  - { offsetInCU: 0x4C44, offset: 0x4C44, size: 0x8, addend: 0x0, symName: __ZNSt3__124__is_overaligned_for_newB7v160006Em, symObjAddr: 0x15A0, symBinAddr: 0x100003144, symSize: 0x20 }
  - { offsetInCU: 0x4C72, offset: 0x4C72, size: 0x8, addend: 0x0, symName: __ZNSt3__127__do_deallocate_handle_sizeB7v160006IJSt11align_val_tEEEvPvmDpT_, symObjAddr: 0x15C0, symBinAddr: 0x100003164, symSize: 0x30 }
  - { offsetInCU: 0x4CC5, offset: 0x4CC5, size: 0x8, addend: 0x0, symName: __ZNSt3__127__do_deallocate_handle_sizeB7v160006IJEEEvPvmDpT_, symObjAddr: 0x15F0, symBinAddr: 0x100003194, symSize: 0x28 }
  - { offsetInCU: 0x4D03, offset: 0x4D03, size: 0x8, addend: 0x0, symName: __ZNSt3__124__libcpp_operator_deleteB7v160006IJPvSt11align_val_tEEEvDpT_, symObjAddr: 0x1618, symBinAddr: 0x1000031BC, symSize: 0x2C }
  - { offsetInCU: 0x4D4C, offset: 0x4D4C, size: 0x8, addend: 0x0, symName: __ZNSt3__124__libcpp_operator_deleteB7v160006IJPvEEEvDpT_, symObjAddr: 0x1644, symBinAddr: 0x1000031E8, symSize: 0x24 }
  - { offsetInCU: 0x4D81, offset: 0x4D81, size: 0x8, addend: 0x0, symName: __ZNSt3__119__allocate_at_leastB7v160006INS_9allocatorIhEEEENS_19__allocation_resultINS_16allocator_traitsIT_E7pointerEEERS5_m, symObjAddr: 0x171C, symBinAddr: 0x1000032C0, symSize: 0x40 }
  - { offsetInCU: 0x4DC4, offset: 0x4DC4, size: 0x8, addend: 0x0, symName: __ZNSt3__13minB7v160006ImEERKT_S3_S3_, symObjAddr: 0x1808, symBinAddr: 0x1000033AC, symSize: 0x2C }
  - { offsetInCU: 0x4FF1, offset: 0x4FF1, size: 0x8, addend: 0x0, symName: __ZNSt3__13minB7v160006ImNS_6__lessImmEEEERKT_S5_S5_T0_, symObjAddr: 0x1894, symBinAddr: 0x100003438, symSize: 0x54 }
  - { offsetInCU: 0x5086, offset: 0x5086, size: 0x8, addend: 0x0, symName: __ZNSt3__120__throw_length_errorB7v160006EPKc, symObjAddr: 0x1970, symBinAddr: 0x100003514, symSize: 0x64 }
  - { offsetInCU: 0x50AE, offset: 0x50AE, size: 0x8, addend: 0x0, symName: __ZNSt3__117__libcpp_allocateB7v160006Emm, symObjAddr: 0x1AE0, symBinAddr: 0x100003684, symSize: 0x60 }
  - { offsetInCU: 0x5108, offset: 0x5108, size: 0x8, addend: 0x0, symName: __ZNSt3__121__libcpp_operator_newB7v160006IJmSt11align_val_tEEEPvDpT_, symObjAddr: 0x1B40, symBinAddr: 0x1000036E4, symSize: 0x2C }
  - { offsetInCU: 0x5155, offset: 0x5155, size: 0x8, addend: 0x0, symName: __ZNSt3__121__libcpp_operator_newB7v160006IJmEEEPvDpT_, symObjAddr: 0x1B6C, symBinAddr: 0x100003710, symSize: 0x24 }
  - { offsetInCU: 0x518E, offset: 0x518E, size: 0x8, addend: 0x0, symName: __ZNSt3__13maxB7v160006ImEERKT_S3_S3_, symObjAddr: 0x1B90, symBinAddr: 0x100003734, symSize: 0x2C }
  - { offsetInCU: 0x51D1, offset: 0x51D1, size: 0x8, addend: 0x0, symName: __ZNSt3__13maxB7v160006ImNS_6__lessImmEEEERKT_S5_S5_T0_, symObjAddr: 0x1BBC, symBinAddr: 0x100003760, symSize: 0x54 }
  - { offsetInCU: 0x522B, offset: 0x522B, size: 0x8, addend: 0x0, symName: __ZNSt3__118__debug_db_erase_cB7v160006INS_6vectorIhNS_9allocatorIhEEEEEEvPT_, symObjAddr: 0x1E58, symBinAddr: 0x1000039FC, symSize: 0x10 }
  - { offsetInCU: 0x525C, offset: 0x525C, size: 0x8, addend: 0x0, symName: __ZNSt3__119__debug_db_insert_cB7v160006INS_12basic_stringIcNS_11char_traitsIcEENS_9allocatorIcEEEEEEvPT_, symObjAddr: 0x1F38, symBinAddr: 0x100003ADC, symSize: 0x10 }
  - { offsetInCU: 0x528D, offset: 0x528D, size: 0x8, addend: 0x0, symName: __ZNSt3__118__constexpr_strlenB7v160006EPKc, symObjAddr: 0x2004, symBinAddr: 0x100003BA8, symSize: 0x24 }
  - { offsetInCU: 0x5600, offset: 0x5600, size: 0x8, addend: 0x0, symName: __ZSt28__throw_bad_array_new_lengthB7v160006v, symObjAddr: 0x1AAC, symBinAddr: 0x100003650, symSize: 0x34 }
  - { offsetInCU: 0x7A9D, offset: 0x7A9D, size: 0x8, addend: 0x0, symName: _main, symObjAddr: 0x0, symBinAddr: 0x100001BA4, symSize: 0xA4 }
  - { offsetInCU: 0x7B52, offset: 0x7B52, size: 0x8, addend: 0x0, symName: __ZN2VMC1Ev, symObjAddr: 0xA4, symBinAddr: 0x100001C48, symSize: 0x2C }
  - { offsetInCU: 0x7B7A, offset: 0x7B7A, size: 0x8, addend: 0x0, symName: __ZN2VM7executeERKNSt3__112basic_stringIcNS0_11char_traitsIcEENS0_9allocatorIcEEEE, symObjAddr: 0xD0, symBinAddr: 0x100001C74, symSize: 0x6C }
  - { offsetInCU: 0x7BAC, offset: 0x7BAC, size: 0x8, addend: 0x0, symName: __ZNSt3__112basic_stringIcNS_11char_traitsIcEENS_9allocatorIcEEEC1B7v160006IDnEEPKc, symObjAddr: 0x13C, symBinAddr: 0x100001CE0, symSize: 0x34 }
  - { offsetInCU: 0x7BE8, offset: 0x7BE8, size: 0x8, addend: 0x0, symName: __ZN2VMD1Ev, symObjAddr: 0x170, symBinAddr: 0x100001D14, symSize: 0x2C }
  - { offsetInCU: 0x7C12, offset: 0x7C12, size: 0x8, addend: 0x0, symName: __ZN2VMC2Ev, symObjAddr: 0x19C, symBinAddr: 0x100001D40, symSize: 0x30 }
  - { offsetInCU: 0x7C3A, offset: 0x7C3A, size: 0x8, addend: 0x0, symName: __ZNSt3__16vectorIhNS_9allocatorIhEEEC1B7v160006Ev, symObjAddr: 0x1CC, symBinAddr: 0x100001D70, symSize: 0x2C }
  - { offsetInCU: 0x7C62, offset: 0x7C62, size: 0x8, addend: 0x0, symName: __ZNSt3__16vectorIhNS_9allocatorIhEEEC2B7v160006Ev, symObjAddr: 0x1F8, symBinAddr: 0x100001D9C, symSize: 0x58 }
  - { offsetInCU: 0x7C94, offset: 0x7C94, size: 0x8, addend: 0x0, symName: __ZNSt3__117__compressed_pairIPhNS_9allocatorIhEEEC1B7v160006IDnNS_18__default_init_tagEEEOT_OT0_, symObjAddr: 0x250, symBinAddr: 0x100001DF4, symSize: 0x3C }
  - { offsetInCU: 0x7CEA, offset: 0x7CEA, size: 0x8, addend: 0x0, symName: __ZNSt3__117__compressed_pairIPhNS_9allocatorIhEEEC2B7v160006IDnNS_18__default_init_tagEEEOT_OT0_, symObjAddr: 0x2A8, symBinAddr: 0x100001E4C, symSize: 0x40 }
  - { offsetInCU: 0x7D40, offset: 0x7D40, size: 0x8, addend: 0x0, symName: __ZNSt3__122__compressed_pair_elemIPhLi0ELb0EEC2B7v160006IDnvEEOT_, symObjAddr: 0x2E8, symBinAddr: 0x100001E8C, symSize: 0x1C }
  - { offsetInCU: 0x7D80, offset: 0x7D80, size: 0x8, addend: 0x0, symName: __ZNSt3__122__compressed_pair_elemINS_9allocatorIhEELi1ELb1EEC2B7v160006ENS_18__default_init_tagE, symObjAddr: 0x304, symBinAddr: 0x100001EA8, symSize: 0x2C }
  - { offsetInCU: 0x7DB2, offset: 0x7DB2, size: 0x8, addend: 0x0, symName: __ZNSt3__19allocatorIhEC2B7v160006Ev, symObjAddr: 0x330, symBinAddr: 0x100001ED4, symSize: 0x2C }
  - { offsetInCU: 0x7DDA, offset: 0x7DDA, size: 0x8, addend: 0x0, symName: __ZNSt3__116__non_trivial_ifILb1ENS_9allocatorIhEEEC2B7v160006Ev, symObjAddr: 0x35C, symBinAddr: 0x100001F00, symSize: 0x14 }
  - { offsetInCU: 0x7E02, offset: 0x7E02, size: 0x8, addend: 0x0, symName: __ZNSt3__16vectorIhNS_9allocatorIhEEEaSB7v160006ESt16initializer_listIhE, symObjAddr: 0x370, symBinAddr: 0x100001F14, symSize: 0x60 }
  - { offsetInCU: 0x7E35, offset: 0x7E35, size: 0x8, addend: 0x0, symName: __ZNSt3__16vectorIhNS_9allocatorIhEEEixB7v160006Em, symObjAddr: 0x3D0, symBinAddr: 0x100001F74, symSize: 0x24 }
  - { offsetInCU: 0x7E6A, offset: 0x7E6A, size: 0x8, addend: 0x0, symName: __ZN2VM4evalEv, symObjAddr: 0x3F4, symBinAddr: 0x100001F98, symSize: 0x44 }
  - { offsetInCU: 0x7E8E, offset: 0x7E8E, size: 0x8, addend: 0x0, symName: __ZNSt3__16vectorIhNS_9allocatorIhEEE6assignIPKhLi0EEEvT_S7_, symObjAddr: 0x438, symBinAddr: 0x100001FDC, symSize: 0x17C }
  - { offsetInCU: 0x7F2B, offset: 0x7F2B, size: 0x8, addend: 0x0, symName: __ZNKSt16initializer_listIhE5beginB7v160006Ev, symObjAddr: 0x5B4, symBinAddr: 0x100002158, symSize: 0x18 }
  - { offsetInCU: 0x7F4F, offset: 0x7F4F, size: 0x8, addend: 0x0, symName: __ZNKSt16initializer_listIhE3endB7v160006Ev, symObjAddr: 0x5CC, symBinAddr: 0x100002170, symSize: 0x20 }
  - { offsetInCU: 0x7F73, offset: 0x7F73, size: 0x8, addend: 0x0, symName: __ZNKSt3__16vectorIhNS_9allocatorIhEEE8capacityB7v160006Ev, symObjAddr: 0x618, symBinAddr: 0x1000021BC, symSize: 0x38 }
  - { offsetInCU: 0x7F97, offset: 0x7F97, size: 0x8, addend: 0x0, symName: __ZNKSt3__16vectorIhNS_9allocatorIhEEE4sizeB7v160006Ev, symObjAddr: 0x650, symBinAddr: 0x1000021F4, symSize: 0x20 }
  - { offsetInCU: 0x7FBB, offset: 0x7FBB, size: 0x8, addend: 0x0, symName: __ZNSt3__16vectorIhNS_9allocatorIhEEE18__construct_at_endIPKhLi0EEEvT_S7_m, symObjAddr: 0x700, symBinAddr: 0x1000022A4, symSize: 0x8C }
  - { offsetInCU: 0x802C, offset: 0x802C, size: 0x8, addend: 0x0, symName: __ZNSt3__16vectorIhNS_9allocatorIhEEE17__destruct_at_endB7v160006EPh, symObjAddr: 0x78C, symBinAddr: 0x100002330, symSize: 0x60 }
  - { offsetInCU: 0x806E, offset: 0x806E, size: 0x8, addend: 0x0, symName: __ZNSt3__16vectorIhNS_9allocatorIhEEE13__vdeallocateEv, symObjAddr: 0x7EC, symBinAddr: 0x100002390, symSize: 0x8C }
  - { offsetInCU: 0x8094, offset: 0x8094, size: 0x8, addend: 0x0, symName: __ZNSt3__16vectorIhNS_9allocatorIhEEE11__vallocateB7v160006Em, symObjAddr: 0x878, symBinAddr: 0x10000241C, symSize: 0xAC }
  - { offsetInCU: 0x80D6, offset: 0x80D6, size: 0x8, addend: 0x0, symName: __ZNKSt3__16vectorIhNS_9allocatorIhEEE11__recommendB7v160006Em, symObjAddr: 0x924, symBinAddr: 0x1000024C8, symSize: 0xB4 }
  - { offsetInCU: 0x8129, offset: 0x8129, size: 0x8, addend: 0x0, symName: __ZNKSt3__16vectorIhNS_9allocatorIhEEE9__end_capB7v160006Ev, symObjAddr: 0xA08, symBinAddr: 0x1000025AC, symSize: 0x28 }
  - { offsetInCU: 0x814D, offset: 0x814D, size: 0x8, addend: 0x0, symName: __ZNKSt3__117__compressed_pairIPhNS_9allocatorIhEEE5firstB7v160006Ev, symObjAddr: 0xA30, symBinAddr: 0x1000025D4, symSize: 0x24 }
  - { offsetInCU: 0x8171, offset: 0x8171, size: 0x8, addend: 0x0, symName: __ZNKSt3__122__compressed_pair_elemIPhLi0ELb0EE5__getB7v160006Ev, symObjAddr: 0xA54, symBinAddr: 0x1000025F8, symSize: 0x14 }
  - { offsetInCU: 0x81B8, offset: 0x81B8, size: 0x8, addend: 0x0, symName: __ZNKSt3__114__copy_trivialclB7v160006IKhhLi0EEENS_4pairIPT_PT0_EES5_S5_S7_, symObjAddr: 0xC40, symBinAddr: 0x1000027E4, symSize: 0x48 }
  - { offsetInCU: 0x823C, offset: 0x823C, size: 0x8, addend: 0x0, symName: __ZNSt3__14pairIPKhS2_EC1B7v160006IS2_S2_LPv0EEEOT_OT0_, symObjAddr: 0xDA8, symBinAddr: 0x10000294C, symSize: 0x3C }
  - { offsetInCU: 0x8298, offset: 0x8298, size: 0x8, addend: 0x0, symName: __ZNSt3__14pairIPKhS2_EC2B7v160006IS2_S2_LPv0EEEOT_OT0_, symObjAddr: 0xDE4, symBinAddr: 0x100002988, symSize: 0x34 }
  - { offsetInCU: 0x82F4, offset: 0x82F4, size: 0x8, addend: 0x0, symName: __ZNSt3__118__unwrap_iter_implIPKhLb1EE8__unwrapB7v160006ES2_, symObjAddr: 0xE18, symBinAddr: 0x1000029BC, symSize: 0x24 }
  - { offsetInCU: 0x8320, offset: 0x8320, size: 0x8, addend: 0x0, symName: __ZNSt3__14pairIPKhPhEC1B7v160006IRS2_S3_LPv0EEEOT_OT0_, symObjAddr: 0xF04, symBinAddr: 0x100002AA8, symSize: 0x3C }
  - { offsetInCU: 0x837C, offset: 0x837C, size: 0x8, addend: 0x0, symName: __ZNSt3__14pairIPKhPhEC2B7v160006IRS2_S3_LPv0EEEOT_OT0_, symObjAddr: 0xF40, symBinAddr: 0x100002AE4, symSize: 0x34 }
  - { offsetInCU: 0x83D8, offset: 0x83D8, size: 0x8, addend: 0x0, symName: __ZNSt3__118__unwrap_iter_implIPhLb1EE8__unwrapB7v160006ES1_, symObjAddr: 0xF74, symBinAddr: 0x100002B18, symSize: 0x24 }
  - { offsetInCU: 0x83FA, offset: 0x83FA, size: 0x8, addend: 0x0, symName: __ZNSt3__14pairIPKhPhEC1B7v160006IS2_S3_LPv0EEEOT_OT0_, symObjAddr: 0xFAC, symBinAddr: 0x100002B50, symSize: 0x3C }
  - { offsetInCU: 0x8456, offset: 0x8456, size: 0x8, addend: 0x0, symName: __ZNSt3__14pairIPKhPhEC2B7v160006IS2_S3_LPv0EEEOT_OT0_, symObjAddr: 0xFE8, symBinAddr: 0x100002B8C, symSize: 0x34 }
  - { offsetInCU: 0x84B2, offset: 0x84B2, size: 0x8, addend: 0x0, symName: __ZNSt3__118__unwrap_iter_implIPKhLb1EE8__rewrapB7v160006ES2_S2_, symObjAddr: 0x1058, symBinAddr: 0x100002BFC, symSize: 0x48 }
  - { offsetInCU: 0x84E2, offset: 0x84E2, size: 0x8, addend: 0x0, symName: __ZNSt3__118__unwrap_iter_implIPhLb1EE8__rewrapB7v160006ES1_S1_, symObjAddr: 0x10A0, symBinAddr: 0x100002C44, symSize: 0x48 }
  - { offsetInCU: 0x852B, offset: 0x852B, size: 0x8, addend: 0x0, symName: __ZNSt3__16vectorIhNS_9allocatorIhEEE21_ConstructTransactionC1B7v160006ERS3_m, symObjAddr: 0x10E8, symBinAddr: 0x100002C8C, symSize: 0x3C }
  - { offsetInCU: 0x8571, offset: 0x8571, size: 0x8, addend: 0x0, symName: __ZNSt3__16vectorIhNS_9allocatorIhEEE7__allocB7v160006Ev, symObjAddr: 0x115C, symBinAddr: 0x100002D00, symSize: 0x28 }
  - { offsetInCU: 0x8595, offset: 0x8595, size: 0x8, addend: 0x0, symName: __ZNSt3__16vectorIhNS_9allocatorIhEEE21_ConstructTransactionD1B7v160006Ev, symObjAddr: 0x1184, symBinAddr: 0x100002D28, symSize: 0x2C }
  - { offsetInCU: 0x85BD, offset: 0x85BD, size: 0x8, addend: 0x0, symName: __ZNSt3__16vectorIhNS_9allocatorIhEEE21_ConstructTransactionC2B7v160006ERS3_m, symObjAddr: 0x11B0, symBinAddr: 0x100002D54, symSize: 0x44 }
  - { offsetInCU: 0x8603, offset: 0x8603, size: 0x8, addend: 0x0, symName: __ZNSt3__117__compressed_pairIPhNS_9allocatorIhEEE6secondB7v160006Ev, symObjAddr: 0x11F4, symBinAddr: 0x100002D98, symSize: 0x24 }
  - { offsetInCU: 0x8627, offset: 0x8627, size: 0x8, addend: 0x0, symName: __ZNSt3__122__compressed_pair_elemINS_9allocatorIhEELi1ELb1EE5__getB7v160006Ev, symObjAddr: 0x1218, symBinAddr: 0x100002DBC, symSize: 0x14 }
  - { offsetInCU: 0x864B, offset: 0x864B, size: 0x8, addend: 0x0, symName: __ZNSt3__16vectorIhNS_9allocatorIhEEE21_ConstructTransactionD2B7v160006Ev, symObjAddr: 0x122C, symBinAddr: 0x100002DD0, symSize: 0x20 }
  - { offsetInCU: 0x8673, offset: 0x8673, size: 0x8, addend: 0x0, symName: __ZNSt3__16vectorIhNS_9allocatorIhEEE27__invalidate_iterators_pastB7v160006EPh, symObjAddr: 0x124C, symBinAddr: 0x100002DF0, symSize: 0x14 }
  - { offsetInCU: 0x86A8, offset: 0x86A8, size: 0x8, addend: 0x0, symName: __ZNSt3__16vectorIhNS_9allocatorIhEEE22__base_destruct_at_endB7v160006EPh, symObjAddr: 0x1260, symBinAddr: 0x100002E04, symSize: 0x8C }
  - { offsetInCU: 0x86EA, offset: 0x86EA, size: 0x8, addend: 0x0, symName: __ZNKSt3__16vectorIhNS_9allocatorIhEEE17__annotate_shrinkB7v160006Em, symObjAddr: 0x12EC, symBinAddr: 0x100002E90, symSize: 0xB4 }
  - { offsetInCU: 0x871D, offset: 0x871D, size: 0x8, addend: 0x0, symName: __ZNSt3__116allocator_traitsINS_9allocatorIhEEE7destroyB7v160006IhvEEvRS2_PT_, symObjAddr: 0x13A0, symBinAddr: 0x100002F44, symSize: 0x2C }
  - { offsetInCU: 0x8759, offset: 0x8759, size: 0x8, addend: 0x0, symName: __ZNSt3__19allocatorIhE7destroyB7v160006EPh, symObjAddr: 0x13CC, symBinAddr: 0x100002F70, symSize: 0x14 }
  - { offsetInCU: 0x878B, offset: 0x878B, size: 0x8, addend: 0x0, symName: __ZNKSt3__16vectorIhNS_9allocatorIhEEE31__annotate_contiguous_containerB7v160006EPKvS5_S5_S5_, symObjAddr: 0x13E0, symBinAddr: 0x100002F84, symSize: 0x20 }
  - { offsetInCU: 0x87DB, offset: 0x87DB, size: 0x8, addend: 0x0, symName: __ZNKSt3__16vectorIhNS_9allocatorIhEEE4dataB7v160006Ev, symObjAddr: 0x1400, symBinAddr: 0x100002FA4, symSize: 0x28 }
  - { offsetInCU: 0x87FF, offset: 0x87FF, size: 0x8, addend: 0x0, symName: __ZNSt3__16vectorIhNS_9allocatorIhEEE5clearB7v160006Ev, symObjAddr: 0x1428, symBinAddr: 0x100002FCC, symSize: 0x54 }
  - { offsetInCU: 0x8832, offset: 0x8832, size: 0x8, addend: 0x0, symName: __ZNSt3__116allocator_traitsINS_9allocatorIhEEE10deallocateB7v160006ERS2_Phm, symObjAddr: 0x147C, symBinAddr: 0x100003020, symSize: 0x34 }
  - { offsetInCU: 0x8873, offset: 0x8873, size: 0x8, addend: 0x0, symName: __ZNSt3__16vectorIhNS_9allocatorIhEEE9__end_capB7v160006Ev, symObjAddr: 0x14B0, symBinAddr: 0x100003054, symSize: 0x28 }
  - { offsetInCU: 0x8897, offset: 0x8897, size: 0x8, addend: 0x0, symName: __ZNSt3__16vectorIhNS_9allocatorIhEEE7__clearB7v160006Ev, symObjAddr: 0x14D8, symBinAddr: 0x10000307C, symSize: 0x28 }
  - { offsetInCU: 0x88BB, offset: 0x88BB, size: 0x8, addend: 0x0, symName: __ZNSt3__19allocatorIhE10deallocateB7v160006EPhm, symObjAddr: 0x1500, symBinAddr: 0x1000030A4, symSize: 0x40 }
  - { offsetInCU: 0x88FB, offset: 0x88FB, size: 0x8, addend: 0x0, symName: __ZNSt3__117__compressed_pairIPhNS_9allocatorIhEEE5firstB7v160006Ev, symObjAddr: 0x1668, symBinAddr: 0x10000320C, symSize: 0x24 }
  - { offsetInCU: 0x891F, offset: 0x891F, size: 0x8, addend: 0x0, symName: __ZNSt3__122__compressed_pair_elemIPhLi0ELb0EE5__getB7v160006Ev, symObjAddr: 0x168C, symBinAddr: 0x100003230, symSize: 0x14 }
  - { offsetInCU: 0x8943, offset: 0x8943, size: 0x8, addend: 0x0, symName: __ZNKSt3__16vectorIhNS_9allocatorIhEEE8max_sizeEv, symObjAddr: 0x16A0, symBinAddr: 0x100003244, symSize: 0x60 }
  - { offsetInCU: 0x8969, offset: 0x8969, size: 0x8, addend: 0x0, symName: __ZNKSt3__16vectorIhNS_9allocatorIhEEE20__throw_length_errorB7v160006Ev, symObjAddr: 0x1700, symBinAddr: 0x1000032A4, symSize: 0x1C }
  - { offsetInCU: 0x898D, offset: 0x898D, size: 0x8, addend: 0x0, symName: __ZNKSt3__16vectorIhNS_9allocatorIhEEE14__annotate_newB7v160006Em, symObjAddr: 0x175C, symBinAddr: 0x100003300, symSize: 0xAC }
  - { offsetInCU: 0x89CA, offset: 0x89CA, size: 0x8, addend: 0x0, symName: __ZNSt3__116allocator_traitsINS_9allocatorIhEEE8max_sizeB7v160006IS2_vEEmRKS2_, symObjAddr: 0x1834, symBinAddr: 0x1000033D8, symSize: 0x24 }
  - { offsetInCU: 0x89F7, offset: 0x89F7, size: 0x8, addend: 0x0, symName: __ZNKSt3__16vectorIhNS_9allocatorIhEEE7__allocB7v160006Ev, symObjAddr: 0x1858, symBinAddr: 0x1000033FC, symSize: 0x28 }
  - { offsetInCU: 0x8A1B, offset: 0x8A1B, size: 0x8, addend: 0x0, symName: __ZNSt3__114numeric_limitsIlE3maxB7v160006Ev, symObjAddr: 0x1880, symBinAddr: 0x100003424, symSize: 0x14 }
  - { offsetInCU: 0x8A42, offset: 0x8A42, size: 0x8, addend: 0x0, symName: __ZNKSt3__16__lessImmEclB7v160006ERKmS3_, symObjAddr: 0x18E8, symBinAddr: 0x10000348C, symSize: 0x34 }
  - { offsetInCU: 0x8A82, offset: 0x8A82, size: 0x8, addend: 0x0, symName: __ZNKSt3__19allocatorIhE8max_sizeB7v160006Ev, symObjAddr: 0x191C, symBinAddr: 0x1000034C0, symSize: 0x14 }
  - { offsetInCU: 0x8AA6, offset: 0x8AA6, size: 0x8, addend: 0x0, symName: __ZNKSt3__117__compressed_pairIPhNS_9allocatorIhEEE6secondB7v160006Ev, symObjAddr: 0x1930, symBinAddr: 0x1000034D4, symSize: 0x24 }
  - { offsetInCU: 0x8ACA, offset: 0x8ACA, size: 0x8, addend: 0x0, symName: __ZNKSt3__122__compressed_pair_elemINS_9allocatorIhEELi1ELb1EE5__getB7v160006Ev, symObjAddr: 0x1954, symBinAddr: 0x1000034F8, symSize: 0x14 }
  - { offsetInCU: 0x8AEE, offset: 0x8AEE, size: 0x8, addend: 0x0, symName: __ZNSt3__123__libcpp_numeric_limitsIlLb1EE3maxB7v160006Ev, symObjAddr: 0x1968, symBinAddr: 0x10000350C, symSize: 0x8 }
  - { offsetInCU: 0x8B01, offset: 0x8B01, size: 0x8, addend: 0x0, symName: __ZNSt12length_errorC1B7v160006EPKc, symObjAddr: 0x19D4, symBinAddr: 0x100003578, symSize: 0x34 }
  - { offsetInCU: 0x8B37, offset: 0x8B37, size: 0x8, addend: 0x0, symName: __ZNSt12length_errorC2B7v160006EPKc, symObjAddr: 0x1A08, symBinAddr: 0x1000035AC, symSize: 0x4C }
  - { offsetInCU: 0x8B6D, offset: 0x8B6D, size: 0x8, addend: 0x0, symName: __ZNSt3__19allocatorIhE8allocateB7v160006Em, symObjAddr: 0x1A54, symBinAddr: 0x1000035F8, symSize: 0x58 }
  - { offsetInCU: 0x8B9F, offset: 0x8B9F, size: 0x8, addend: 0x0, symName: __ZN2VMD2Ev, symObjAddr: 0x1C10, symBinAddr: 0x1000037B4, symSize: 0x30 }
  - { offsetInCU: 0x8BC9, offset: 0x8BC9, size: 0x8, addend: 0x0, symName: __ZNSt3__16vectorIhNS_9allocatorIhEEED1B7v160006Ev, symObjAddr: 0x1C40, symBinAddr: 0x1000037E4, symSize: 0x2C }
  - { offsetInCU: 0x8BF1, offset: 0x8BF1, size: 0x8, addend: 0x0, symName: __ZNSt3__16vectorIhNS_9allocatorIhEEED2B7v160006Ev, symObjAddr: 0x1C6C, symBinAddr: 0x100003810, symSize: 0x44 }
  - { offsetInCU: 0x8C19, offset: 0x8C19, size: 0x8, addend: 0x0, symName: __ZNSt3__16vectorIhNS_9allocatorIhEEE16__destroy_vectorC1ERS3_, symObjAddr: 0x1CB0, symBinAddr: 0x100003854, symSize: 0x34 }
  - { offsetInCU: 0x8C50, offset: 0x8C50, size: 0x8, addend: 0x0, symName: __ZNSt3__16vectorIhNS_9allocatorIhEEE16__destroy_vectorclB7v160006Ev, symObjAddr: 0x1CE4, symBinAddr: 0x100003888, symSize: 0x9C }
  - { offsetInCU: 0x8C74, offset: 0x8C74, size: 0x8, addend: 0x0, symName: __ZNSt3__16vectorIhNS_9allocatorIhEEE16__destroy_vectorC2ERS3_, symObjAddr: 0x1D80, symBinAddr: 0x100003924, symSize: 0x20 }
  - { offsetInCU: 0x8CAB, offset: 0x8CAB, size: 0x8, addend: 0x0, symName: __ZNKSt3__16vectorIhNS_9allocatorIhEEE17__annotate_deleteB7v160006Ev, symObjAddr: 0x1DA0, symBinAddr: 0x100003944, symSize: 0xB8 }
  - { offsetInCU: 0x8CCF, offset: 0x8CCF, size: 0x8, addend: 0x0, symName: __ZNSt3__112basic_stringIcNS_11char_traitsIcEENS_9allocatorIcEEEC2B7v160006IDnEEPKc, symObjAddr: 0x1E68, symBinAddr: 0x100003A0C, symSize: 0x60 }
  - { offsetInCU: 0x8D0B, offset: 0x8D0B, size: 0x8, addend: 0x0, symName: __ZNSt3__117__compressed_pairINS_12basic_stringIcNS_11char_traitsIcEENS_9allocatorIcEEE5__repES5_EC1B7v160006INS_18__default_init_tagESA_EEOT_OT0_, symObjAddr: 0x1EC8, symBinAddr: 0x100003A6C, symSize: 0x3C }
  - { offsetInCU: 0x8D61, offset: 0x8D61, size: 0x8, addend: 0x0, symName: __ZNSt3__111char_traitsIcE6lengthEPKc, symObjAddr: 0x1F04, symBinAddr: 0x100003AA8, symSize: 0x34 }
  - { offsetInCU: 0x8D83, offset: 0x8D83, size: 0x8, addend: 0x0, symName: __ZNSt3__117__compressed_pairINS_12basic_stringIcNS_11char_traitsIcEENS_9allocatorIcEEE5__repES5_EC2B7v160006INS_18__default_init_tagESA_EEOT_OT0_, symObjAddr: 0x1F48, symBinAddr: 0x100003AEC, symSize: 0x3C }
  - { offsetInCU: 0x8DD9, offset: 0x8DD9, size: 0x8, addend: 0x0, symName: __ZNSt3__122__compressed_pair_elemINS_12basic_stringIcNS_11char_traitsIcEENS_9allocatorIcEEE5__repELi0ELb0EEC2B7v160006ENS_18__default_init_tagE, symObjAddr: 0x1F84, symBinAddr: 0x100003B28, symSize: 0x14 }
  - { offsetInCU: 0x8E0B, offset: 0x8E0B, size: 0x8, addend: 0x0, symName: __ZNSt3__122__compressed_pair_elemINS_9allocatorIcEELi1ELb1EEC2B7v160006ENS_18__default_init_tagE, symObjAddr: 0x1F98, symBinAddr: 0x100003B3C, symSize: 0x2C }
  - { offsetInCU: 0x8E3D, offset: 0x8E3D, size: 0x8, addend: 0x0, symName: __ZNSt3__19allocatorIcEC2B7v160006Ev, symObjAddr: 0x1FC4, symBinAddr: 0x100003B68, symSize: 0x2C }
  - { offsetInCU: 0x8E65, offset: 0x8E65, size: 0x8, addend: 0x0, symName: __ZNSt3__116__non_trivial_ifILb1ENS_9allocatorIcEEEC2B7v160006Ev, symObjAddr: 0x1FF0, symBinAddr: 0x100003B94, symSize: 0x14 }
...
